; Function Attrs: mustprogress nounwind uwtable
define void @_ZN3gmx21SimulationInputHandleC2Ev(ptr noundef nonnull align 8 dereferenceable(8) %0) unnamed_addr #1 align 2 personality ptr @__gxx_personality_v0 {
  store i64 0, ptr %0, align 8
  invoke void @_ZN3gmx6detail32SimulationInputHandleImplDeleterC1Ev(ptr noundef nonnull align 1 dereferenceable(1) %0)
          to label %_ZNSt10unique_ptrIN3gmx6detail25SimulationInputHandleImplENS1_32SimulationInputHandleImplDeleterEEC2IS3_vEEv.exit unwind label %2

2:                                                ; preds = %1
  %3 = landingpad { ptr, i32 }
          catch ptr null
  %4 = extractvalue { ptr, i32 } %3, 0
  tail call void @__clang_call_terminate(ptr %4) #15
  unreachable

_ZNSt10unique_ptrIN3gmx6detail25SimulationInputHandleImplENS1_32SimulationInputHandleImplDeleterEEC2IS3_vEEv.exit: ; preds = %1
  store ptr null, ptr %0, align 8
  ret void
}